; Function Attrs: nounwind uwtable
define void @Wln_End(ptr noundef captures(none) %0) local_unnamed_addr #0 {
  %2 = getelementptr i8, ptr %0, i64 520
  %.val.i = load ptr, ptr %2, align 8, !tbaa !12
  %.not.i.i = icmp eq ptr %.val.i, null
  br i1 %.not.i.i, label %Wln_AbcUpdateRtl.exit, label %3

3:                                                ; preds = %1
  tail call void @Rtl_LibFree(ptr noundef nonnull %.val.i) #10
  br label %Wln_AbcUpdateRtl.exit

Wln_AbcUpdateRtl.exit:                            ; preds = %1, %3
  store ptr null, ptr %2, align 8, !tbaa !12
  ret void
}